target datalayout = "e-m:e-p270:32:32-p271:32:32-p272:64:64-i64:64-i128:128-f80:128-n8:16:32:64-S128"
target triple = "x86_64-pc-linux-gnu"

%struct.pkcs7_st = type { ptr, i64, i32, i32, ptr, %union.anon, %struct.PKCS7_CTX_st }
%union.anon = type { ptr }
%struct.PKCS7_CTX_st = type { ptr, ptr }
%struct.pkcs7_signedandenveloped_st = type { ptr, ptr, ptr, ptr, ptr, ptr, ptr }
%struct.pkcs7_enveloped_st = type { ptr, ptr, ptr }

@.str = private unnamed_addr constant [34 x i8] c"../openssl/crypto/pkcs7/pk7_lib.c\00", align 1
@__func__.PKCS7_add_recipient_info = private unnamed_addr constant [25 x i8] c"PKCS7_add_recipient_info\00", align 1

; Function Attrs: inlinehint nounwind uwtable
define internal ptr @ossl_check_PKCS7_RECIP_INFO_type(ptr noundef %0) #3 {
  %2 = alloca ptr, align 8
  store ptr %0, ptr %2, align 8, !tbaa !111
  %3 = load ptr, ptr %2, align 8, !tbaa !111
  ret ptr %3
}

; Function Attrs: inlinehint nounwind uwtable
define internal ptr @ossl_check_PKCS7_RECIP_INFO_sk_type(ptr noundef %0) #3 {
  %2 = alloca ptr, align 8
  store ptr %0, ptr %2, align 8, !tbaa !108
  %3 = load ptr, ptr %2, align 8, !tbaa !108
  ret ptr %3
}

; Function Attrs: nounwind uwtable
define i32 @PKCS7_add_recipient_info(ptr noundef %0, ptr noundef %1) #0 {
  %3 = alloca i32, align 4
  %4 = alloca ptr, align 8
  %5 = alloca ptr, align 8
  %6 = alloca i32, align 4
  %7 = alloca ptr, align 8
  %8 = alloca i32, align 4
  store ptr %0, ptr %4, align 8, !tbaa !3
  store ptr %1, ptr %5, align 8, !tbaa !111
  call void @llvm.lifetime.start.p0(i64 4, ptr %6) #4
  call void @llvm.lifetime.start.p0(i64 8, ptr %7) #4
  %9 = load ptr, ptr %4, align 8, !tbaa !3
  %10 = getelementptr inbounds nuw %struct.pkcs7_st, ptr %9, i32 0, i32 4
  %11 = load ptr, ptr %10, align 8, !tbaa !14
  %12 = call i32 @OBJ_obj2nid(ptr noundef %11)
  store i32 %12, ptr %6, align 4, !tbaa !8
  %13 = load i32, ptr %6, align 4, !tbaa !8
  switch i32 %13, label %26 [
    i32 24, label %14
    i32 23, label %20
  ]

14:                                               ; preds = %2
  %15 = load ptr, ptr %4, align 8, !tbaa !3
  %16 = getelementptr inbounds nuw %struct.pkcs7_st, ptr %15, i32 0, i32 5
  %17 = load ptr, ptr %16, align 8, !tbaa !19
  %18 = getelementptr inbounds nuw %struct.pkcs7_signedandenveloped_st, ptr %17, i32 0, i32 6
  %19 = load ptr, ptr %18, align 8, !tbaa !119
  store ptr %19, ptr %7, align 8, !tbaa !108
  br label %27

20:                                               ; preds = %2
  %21 = load ptr, ptr %4, align 8, !tbaa !3
  %22 = getelementptr inbounds nuw %struct.pkcs7_st, ptr %21, i32 0, i32 5
  %23 = load ptr, ptr %22, align 8, !tbaa !19
  %24 = getelementptr inbounds nuw %struct.pkcs7_enveloped_st, ptr %23, i32 0, i32 1
  %25 = load ptr, ptr %24, align 8, !tbaa !120
  store ptr %25, ptr %7, align 8, !tbaa !108
  br label %27

26:                                               ; preds = %2
  call void @ERR_new()
  call void @ERR_set_debug(ptr noundef @.str, i32 noundef 600, ptr noundef @__func__.PKCS7_add_recipient_info)
  call void (i32, i32, ptr, ...) @ERR_set_error(i32 noundef 33, i32 noundef 113, ptr noundef null)
  store i32 0, ptr %3, align 4
  store i32 1, ptr %8, align 4
  br label %36

27:                                               ; preds = %20, %14
  %28 = load ptr, ptr %7, align 8, !tbaa !108
  %29 = call ptr @ossl_check_PKCS7_RECIP_INFO_sk_type(ptr noundef %28)
  %30 = load ptr, ptr %5, align 8, !tbaa !111
  %31 = call ptr @ossl_check_PKCS7_RECIP_INFO_type(ptr noundef %30)
  %32 = call i32 @OPENSSL_sk_push(ptr noundef %29, ptr noundef %31)
  %33 = icmp ne i32 %32, 0
  br i1 %33, label %35, label %34

34:                                               ; preds = %27
  store i32 0, ptr %3, align 4
  store i32 1, ptr %8, align 4
  br label %36

35:                                               ; preds = %27
  store i32 1, ptr %3, align 4
  store i32 1, ptr %8, align 4
  br label %36

36:                                               ; preds = %35, %34, %26
  call void @llvm.lifetime.end.p0(i64 8, ptr %7) #4
  call void @llvm.lifetime.end.p0(i64 4, ptr %6) #4
  %37 = load i32, ptr %3, align 4
  ret i32 %37
}