; Function Attrs: nounwind uwtable
define range(i32 0, 2) i32 @PKCS7_add_recipient_info(ptr noundef readonly captures(none) %0, ptr noundef %1) local_unnamed_addr #0 {
  %3 = getelementptr inbounds nuw i8, ptr %0, i64 24
  %4 = load ptr, ptr %3, align 8, !tbaa !3
  %5 = tail call i32 @OBJ_obj2nid(ptr noundef %4) #7
  switch i32 %5, label %7 [
    i32 24, label %8
    i32 23, label %6
  ]

6:                                                ; preds = %2
  br label %8

7:                                                ; preds = %2
  tail call void @ERR_new() #7
  tail call void @ERR_set_debug(ptr noundef nonnull @.str, i32 noundef 600, ptr noundef nonnull @__func__.PKCS7_add_recipient_info) #7
  tail call void (i32, i32, ptr, ...) @ERR_set_error(i32 noundef 33, i32 noundef 113, ptr noundef null) #7
  br label %13

8:                                                ; preds = %2, %6
  %.sink7 = phi i64 [ 8, %6 ], [ 48, %2 ]
  %9 = getelementptr inbounds nuw i8, ptr %0, i64 32
  %10 = load ptr, ptr %9, align 8, !tbaa !14
  %11 = getelementptr inbounds nuw i8, ptr %10, i64 %.sink7
  %.0 = load ptr, ptr %11, align 8, !tbaa !84
  %12 = tail call i32 @OPENSSL_sk_push(ptr noundef %.0, ptr noundef %1) #7
  %.not = icmp ne i32 %12, 0
  %. = zext i1 %.not to i32
  br label %13

13:                                               ; preds = %8, %7
  %.06 = phi i32 [ 0, %7 ], [ %., %8 ]
  ret i32 %.06
}